target datalayout = "e-m:e-p270:32:32-p271:32:32-p272:64:64-i64:64-i128:128-f80:128-n8:16:32:64-S128"
target triple = "x86_64-pc-linux-gnu"

@.str.25 = private unnamed_addr constant [5 x i8] c"size\00", align 1

; Function Attrs: mustprogress uwtable
define internal noundef i32 @_ZL13buffer_createP9lua_State(ptr noundef %0) #0 {
  %2 = alloca ptr, align 8
  %3 = alloca i32, align 4
  store ptr %0, ptr %2, align 8
  %4 = load ptr, ptr %2, align 8
  %5 = call noundef i32 @_Z17luaL_checkintegerP9lua_Statei(ptr noundef %4, i32 noundef 1)
  store i32 %5, ptr %3, align 4
  %6 = load i32, ptr %3, align 4
  %7 = icmp sge i32 %6, 0
  br i1 %7, label %8, label %9

8:                                                ; preds = %1
  br label %12

9:                                                ; preds = %1
  %10 = load ptr, ptr %2, align 8
  call void @_Z14luaL_argerrorLP9lua_StateiPKc(ptr noundef %10, i32 noundef 1, ptr noundef @.str.25) #5
  unreachable

11:                                               ; No predecessors!
  br label %12

12:                                               ; preds = %11, %8
  %13 = load ptr, ptr %2, align 8
  %14 = load i32, ptr %3, align 4
  %15 = sext i32 %14 to i64
  %16 = call noundef ptr @_Z13lua_newbufferP9lua_Statem(ptr noundef %13, i64 noundef %15)
  ret i32 1
}