; Function Attrs: mustprogress uwtable
define internal noundef i32 @_ZL13buffer_createP9lua_State(ptr noundef %0) #0 {
  %2 = tail call noundef i32 @_Z17luaL_checkintegerP9lua_Statei(ptr noundef %0, i32 noundef 1)
  %3 = icmp sgt i32 %2, -1
  br i1 %3, label %5, label %4

4:                                                ; preds = %1
  tail call void @_Z14luaL_argerrorLP9lua_StateiPKc(ptr noundef %0, i32 noundef 1, ptr noundef nonnull @.str.25) #5
  unreachable

5:                                                ; preds = %1
  %6 = zext nneg i32 %2 to i64
  %7 = tail call noundef ptr @_Z13lua_newbufferP9lua_Statem(ptr noundef %0, i64 noundef %6)
  ret i32 1
}